target datalayout = "e-m:e-p270:32:32-p271:32:32-p272:64:64-i64:64-i128:128-f80:128-n8:16:32:64-S128"
target triple = "x86_64-pc-linux-gnu"

%struct.IDAMemRec = type { double, ptr, ptr, i32, double, double, ptr, i32, ptr, ptr, i32, ptr, ptr, i32, i32, double, double, ptr, i32, i32, i32, ptr, ptr, i32, ptr, ptr, ptr, i32, double, i32, i32, double, ptr, ptr, i32, ptr, ptr, i32, i32, i32, double, ptr, ptr, [6 x ptr], [6 x double], [6 x double], [6 x double], [6 x double], [6 x double], ptr, ptr, ptr, ptr, ptr, ptr, ptr, ptr, ptr, ptr, ptr, ptr, ptr, ptr, ptr, [6 x ptr], ptr, ptr, ptr, ptr, [6 x ptr], ptr, ptr, ptr, ptr, ptr, ptr, ptr, ptr, ptr, ptr, ptr, ptr, ptr, ptr, [6 x ptr], ptr, ptr, ptr, ptr, ptr, double, ptr, ptr, i32, i32, i32, i32, i32, i32, i32, double, double, double, i32, double, i32, i32, i32, i32, double, double, double, double, double, double, double, double, double, double, double, double, double, double, i32, i32, i32, i32, i32, i64, double, i32, i64, i64, i64, i64, i64, i64, i64, i64, i64, i64, i64, i64, i64, i64, i64, i64, i64, i64, i64, i64, i64, i64, i64, i64, ptr, ptr, ptr, i32, i32, i32, i32, i32, i32, i32, i32, i32, i32, i32, i32, i32, ptr, ptr, ptr, ptr, ptr, ptr, i32, i32, i32, i32, i32, i32, double, double, double, ptr, i32, ptr, ptr, double, double, double, ptr, ptr, ptr, double, double, i32, i32, i64, ptr, i32, i32, ptr, i32 }

@.str = private unnamed_addr constant [5 x i8] c"IDAS\00", align 1
@.str.4 = private unnamed_addr constant [24 x i8] c"ida_mem = NULL illegal.\00", align 1
@.str.30 = private unnamed_addr constant [52 x i8] c"Illegal attempt to call before calling IDASensInit.\00", align 1
@.str.40 = private unnamed_addr constant [73 x i8] c"Forward sensitivity analysis for quadrature variables was not activated.\00", align 1
@.str.41 = private unnamed_addr constant [24 x i8] c"IDAQuadSensSStolerances\00", align 1
@.str.42 = private unnamed_addr constant [32 x i8] c"reltolQS < 0 illegal parameter.\00", align 1
@.str.43 = private unnamed_addr constant [35 x i8] c"abstolQS = NULL illegal parameter.\00", align 1
@.str.44 = private unnamed_addr constant [46 x i8] c"abstolQS has negative component(s) (illegal).\00", align 1

; Function Attrs: nounwind uwtable
define i32 @IDAQuadSensSStolerances(ptr noundef %0, double noundef %1, ptr noundef %2) #0 {
  %4 = alloca i32, align 4
  %5 = alloca ptr, align 8
  %6 = alloca double, align 8
  %7 = alloca ptr, align 8
  %8 = alloca ptr, align 8
  %9 = alloca i32, align 4
  %10 = alloca i32, align 4
  store ptr %0, ptr %5, align 8, !tbaa !91
  store double %1, ptr %6, align 8, !tbaa !92
  store ptr %2, ptr %7, align 8, !tbaa !195
  call void @llvm.lifetime.start.p0(i64 8, ptr %8) #8
  call void @llvm.lifetime.start.p0(i64 4, ptr %9) #8
  %11 = load ptr, ptr %5, align 8, !tbaa !91
  %12 = icmp eq ptr %11, null
  br i1 %12, label %13, label %14

13:                                               ; preds = %3
  call void (ptr, i32, ptr, ptr, ptr, ...) @IDAProcessError(ptr noundef null, i32 noundef -20, ptr noundef @.str, ptr noundef @.str.41, ptr noundef @.str.4)
  store i32 -20, ptr %4, align 4
  store i32 1, ptr %10, align 4
  br label %111

14:                                               ; preds = %3
  %15 = load ptr, ptr %5, align 8, !tbaa !91
  store ptr %15, ptr %8, align 8, !tbaa !3
  %16 = load ptr, ptr %8, align 8, !tbaa !3
  %17 = getelementptr inbounds nuw %struct.IDAMemRec, ptr %16, i32 0, i32 18
  %18 = load i32, ptr %17, align 8, !tbaa !53
  %19 = icmp ne i32 %18, 0
  br i1 %19, label %22, label %20

20:                                               ; preds = %14
  %21 = load ptr, ptr %8, align 8, !tbaa !3
  call void (ptr, i32, ptr, ptr, ptr, ...) @IDAProcessError(ptr noundef %21, i32 noundef -40, ptr noundef @.str, ptr noundef @.str.41, ptr noundef @.str.30)
  store i32 -40, ptr %4, align 4
  store i32 1, ptr %10, align 4
  br label %111

22:                                               ; preds = %14
  %23 = load ptr, ptr %8, align 8, !tbaa !3
  %24 = getelementptr inbounds nuw %struct.IDAMemRec, ptr %23, i32 0, i32 170
  %25 = load i32, ptr %24, align 8, !tbaa !86
  %26 = icmp ne i32 %25, 0
  br i1 %26, label %29, label %27

27:                                               ; preds = %22
  %28 = load ptr, ptr %8, align 8, !tbaa !3
  call void (ptr, i32, ptr, ptr, ptr, ...) @IDAProcessError(ptr noundef %28, i32 noundef -50, ptr noundef @.str, ptr noundef @.str.41, ptr noundef @.str.40)
  store i32 -50, ptr %4, align 4
  store i32 1, ptr %10, align 4
  br label %111

29:                                               ; preds = %22
  %30 = load double, ptr %6, align 8, !tbaa !92
  %31 = fcmp olt double %30, 0.000000e+00
  br i1 %31, label %32, label %34

32:                                               ; preds = %29
  %33 = load ptr, ptr %8, align 8, !tbaa !3
  call void (ptr, i32, ptr, ptr, ptr, ...) @IDAProcessError(ptr noundef %33, i32 noundef -22, ptr noundef @.str, ptr noundef @.str.41, ptr noundef @.str.42)
  store i32 -22, ptr %4, align 4
  store i32 1, ptr %10, align 4
  br label %111

34:                                               ; preds = %29
  %35 = load ptr, ptr %7, align 8, !tbaa !195
  %36 = icmp eq ptr %35, null
  br i1 %36, label %37, label %39

37:                                               ; preds = %34
  %38 = load ptr, ptr %8, align 8, !tbaa !3
  call void (ptr, i32, ptr, ptr, ptr, ...) @IDAProcessError(ptr noundef %38, i32 noundef -22, ptr noundef @.str, ptr noundef @.str.41, ptr noundef @.str.43)
  store i32 -22, ptr %4, align 4
  store i32 1, ptr %10, align 4
  br label %111

39:                                               ; preds = %34
  store i32 0, ptr %9, align 4, !tbaa !88
  br label %40

40:                                               ; preds = %56, %39
  %41 = load i32, ptr %9, align 4, !tbaa !88
  %42 = load ptr, ptr %8, align 8, !tbaa !3
  %43 = getelementptr inbounds nuw %struct.IDAMemRec, ptr %42, i32 0, i32 19
  %44 = load i32, ptr %43, align 4, !tbaa !173
  %45 = icmp slt i32 %41, %44
  br i1 %45, label %46, label %59

46:                                               ; preds = %40
  %47 = load ptr, ptr %7, align 8, !tbaa !195
  %48 = load i32, ptr %9, align 4, !tbaa !88
  %49 = sext i32 %48 to i64
  %50 = getelementptr inbounds double, ptr %47, i64 %49
  %51 = load double, ptr %50, align 8, !tbaa !92
  %52 = fcmp olt double %51, 0.000000e+00
  br i1 %52, label %53, label %55

53:                                               ; preds = %46
  %54 = load ptr, ptr %8, align 8, !tbaa !3
  call void (ptr, i32, ptr, ptr, ptr, ...) @IDAProcessError(ptr noundef %54, i32 noundef -22, ptr noundef @.str, ptr noundef @.str.41, ptr noundef @.str.44)
  store i32 -22, ptr %4, align 4
  store i32 1, ptr %10, align 4
  br label %111

55:                                               ; preds = %46
  br label %56

56:                                               ; preds = %55
  %57 = load i32, ptr %9, align 4, !tbaa !88
  %58 = add nsw i32 %57, 1
  store i32 %58, ptr %9, align 4, !tbaa !88
  br label %40, !llvm.loop !215

59:                                               ; preds = %40
  %60 = load ptr, ptr %8, align 8, !tbaa !3
  %61 = getelementptr inbounds nuw %struct.IDAMemRec, ptr %60, i32 0, i32 39
  store i32 1, ptr %61, align 8, !tbaa !70
  %62 = load double, ptr %6, align 8, !tbaa !92
  %63 = load ptr, ptr %8, align 8, !tbaa !3
  %64 = getelementptr inbounds nuw %struct.IDAMemRec, ptr %63, i32 0, i32 40
  store double %62, ptr %64, align 8, !tbaa !216
  %65 = load ptr, ptr %8, align 8, !tbaa !3
  %66 = getelementptr inbounds nuw %struct.IDAMemRec, ptr %65, i32 0, i32 169
  %67 = load i32, ptr %66, align 4, !tbaa !85
  %68 = icmp ne i32 %67, 0
  br i1 %68, label %88, label %69

69:                                               ; preds = %59
  %70 = load ptr, ptr %8, align 8, !tbaa !3
  %71 = getelementptr inbounds nuw %struct.IDAMemRec, ptr %70, i32 0, i32 19
  %72 = load i32, ptr %71, align 4, !tbaa !173
  %73 = sext i32 %72 to i64
  %74 = mul i64 %73, 8
  %75 = call noalias ptr @malloc(i64 noundef %74) #9
  %76 = load ptr, ptr %8, align 8, !tbaa !3
  %77 = getelementptr inbounds nuw %struct.IDAMemRec, ptr %76, i32 0, i32 41
  store ptr %75, ptr %77, align 8, !tbaa !217
  %78 = load ptr, ptr %8, align 8, !tbaa !3
  %79 = getelementptr inbounds nuw %struct.IDAMemRec, ptr %78, i32 0, i32 19
  %80 = load i32, ptr %79, align 4, !tbaa !173
  %81 = sext i32 %80 to i64
  %82 = load ptr, ptr %8, align 8, !tbaa !3
  %83 = getelementptr inbounds nuw %struct.IDAMemRec, ptr %82, i32 0, i32 153
  %84 = load i64, ptr %83, align 8, !tbaa !73
  %85 = add nsw i64 %84, %81
  store i64 %85, ptr %83, align 8, !tbaa !73
  %86 = load ptr, ptr %8, align 8, !tbaa !3
  %87 = getelementptr inbounds nuw %struct.IDAMemRec, ptr %86, i32 0, i32 169
  store i32 1, ptr %87, align 4, !tbaa !85
  br label %88

88:                                               ; preds = %69, %59
  store i32 0, ptr %9, align 4, !tbaa !88
  br label %89

89:                                               ; preds = %107, %88
  %90 = load i32, ptr %9, align 4, !tbaa !88
  %91 = load ptr, ptr %8, align 8, !tbaa !3
  %92 = getelementptr inbounds nuw %struct.IDAMemRec, ptr %91, i32 0, i32 19
  %93 = load i32, ptr %92, align 4, !tbaa !173
  %94 = icmp slt i32 %90, %93
  br i1 %94, label %95, label %110

95:                                               ; preds = %89
  %96 = load ptr, ptr %7, align 8, !tbaa !195
  %97 = load i32, ptr %9, align 4, !tbaa !88
  %98 = sext i32 %97 to i64
  %99 = getelementptr inbounds double, ptr %96, i64 %98
  %100 = load double, ptr %99, align 8, !tbaa !92
  %101 = load ptr, ptr %8, align 8, !tbaa !3
  %102 = getelementptr inbounds nuw %struct.IDAMemRec, ptr %101, i32 0, i32 41
  %103 = load ptr, ptr %102, align 8, !tbaa !217
  %104 = load i32, ptr %9, align 4, !tbaa !88
  %105 = sext i32 %104 to i64
  %106 = getelementptr inbounds double, ptr %103, i64 %105
  store double %100, ptr %106, align 8, !tbaa !92
  br label %107

107:                                              ; preds = %95
  %108 = load i32, ptr %9, align 4, !tbaa !88
  %109 = add nsw i32 %108, 1
  store i32 %109, ptr %9, align 4, !tbaa !88
  br label %89, !llvm.loop !218

110:                                              ; preds = %89
  store i32 0, ptr %4, align 4
  store i32 1, ptr %10, align 4
  br label %111

111:                                              ; preds = %110, %53, %37, %32, %27, %20, %13
  call void @llvm.lifetime.end.p0(i64 4, ptr %9) #8
  call void @llvm.lifetime.end.p0(i64 8, ptr %8) #8
  %112 = load i32, ptr %4, align 4
  ret i32 %112
}