; Function Attrs: nounwind uwtable
define range(i32 -50, 1) i32 @IDAQuadSensSStolerances(ptr noundef captures(address_is_null) %0, double noundef %1, ptr noundef readonly captures(address_is_null) %2) local_unnamed_addr #0 {
  %4 = icmp eq ptr %0, null
  br i1 %4, label %5, label %6

5:                                                ; preds = %3
  tail call void (ptr, i32, ptr, ptr, ptr, ...) @IDAProcessError(ptr noundef null, i32 noundef -20, ptr noundef nonnull @.str, ptr noundef nonnull @.str.41, ptr noundef nonnull @.str.4)
  br label %.loopexit

6:                                                ; preds = %3
  %7 = getelementptr inbounds nuw i8, ptr %0, i64 136
  %8 = load i32, ptr %7, align 8, !tbaa !37
  %.not = icmp eq i32 %8, 0
  br i1 %.not, label %9, label %10

9:                                                ; preds = %6
  tail call void (ptr, i32, ptr, ptr, ptr, ...) @IDAProcessError(ptr noundef nonnull %0, i32 noundef -40, ptr noundef nonnull @.str, ptr noundef nonnull @.str.41, ptr noundef nonnull @.str.30)
  br label %.loopexit

10:                                               ; preds = %6
  %11 = getelementptr inbounds nuw i8, ptr %0, i64 1584
  %12 = load i32, ptr %11, align 8, !tbaa !181
  %.not36 = icmp eq i32 %12, 0
  br i1 %.not36, label %13, label %14

13:                                               ; preds = %10
  tail call void (ptr, i32, ptr, ptr, ptr, ...) @IDAProcessError(ptr noundef nonnull %0, i32 noundef -50, ptr noundef nonnull @.str, ptr noundef nonnull @.str.41, ptr noundef nonnull @.str.40)
  br label %.loopexit

14:                                               ; preds = %10
  %15 = fcmp olt double %1, 0.000000e+00
  br i1 %15, label %16, label %17

16:                                               ; preds = %14
  tail call void (ptr, i32, ptr, ptr, ptr, ...) @IDAProcessError(ptr noundef nonnull %0, i32 noundef -22, ptr noundef nonnull @.str, ptr noundef nonnull @.str.41, ptr noundef nonnull @.str.42)
  br label %.loopexit

17:                                               ; preds = %14
  %18 = icmp eq ptr %2, null
  br i1 %18, label %22, label %.preheader

.preheader:                                       ; preds = %17
  %19 = getelementptr inbounds nuw i8, ptr %0, i64 140
  %20 = load i32, ptr %19, align 4, !tbaa !139
  %21 = icmp sgt i32 %20, 0
  br i1 %21, label %.lr.ph.preheader, label %._crit_edge

.lr.ph.preheader:                                 ; preds = %.preheader
  %wide.trip.count = zext nneg i32 %20 to i64
  br label %.lr.ph

22:                                               ; preds = %17
  tail call void (ptr, i32, ptr, ptr, ptr, ...) @IDAProcessError(ptr noundef nonnull %0, i32 noundef -22, ptr noundef nonnull @.str, ptr noundef nonnull @.str.41, ptr noundef nonnull @.str.43)
  br label %.loopexit

23:                                               ; preds = %.lr.ph
  %indvars.iv.next = add nuw nsw i64 %indvars.iv, 1
  %exitcond.not = icmp eq i64 %indvars.iv.next, %wide.trip.count
  br i1 %exitcond.not, label %._crit_edge, label %.lr.ph, !llvm.loop !183

.lr.ph:                                           ; preds = %.lr.ph.preheader, %23
  %indvars.iv = phi i64 [ 0, %.lr.ph.preheader ], [ %indvars.iv.next, %23 ]
  %24 = getelementptr inbounds nuw double, ptr %2, i64 %indvars.iv
  %25 = load double, ptr %24, align 8, !tbaa !60
  %26 = fcmp olt double %25, 0.000000e+00
  br i1 %26, label %27, label %23

27:                                               ; preds = %.lr.ph
  tail call void (ptr, i32, ptr, ptr, ptr, ...) @IDAProcessError(ptr noundef nonnull %0, i32 noundef -22, ptr noundef nonnull @.str, ptr noundef nonnull @.str.41, ptr noundef nonnull @.str.44)
  br label %.loopexit

._crit_edge:                                      ; preds = %23, %.preheader
  %28 = getelementptr inbounds nuw i8, ptr %0, i64 280
  store i32 1, ptr %28, align 8, !tbaa !51
  %29 = getelementptr inbounds nuw i8, ptr %0, i64 288
  store double %1, ptr %29, align 8, !tbaa !184
  %30 = getelementptr inbounds nuw i8, ptr %0, i64 1580
  %31 = load i32, ptr %30, align 4, !tbaa !185
  %.not37 = icmp eq i32 %31, 0
  br i1 %.not37, label %32, label %40

32:                                               ; preds = %._crit_edge
  %33 = sext i32 %20 to i64
  %34 = shl nsw i64 %33, 3
  %35 = tail call noalias ptr @malloc(i64 noundef %34) #15
  %36 = getelementptr inbounds nuw i8, ptr %0, i64 296
  store ptr %35, ptr %36, align 8, !tbaa !186
  %37 = getelementptr inbounds nuw i8, ptr %0, i64 1496
  %38 = load i64, ptr %37, align 8, !tbaa !54
  %39 = add nsw i64 %38, %33
  store i64 %39, ptr %37, align 8, !tbaa !54
  store i32 1, ptr %30, align 4, !tbaa !185
  br label %40

40:                                               ; preds = %32, %._crit_edge
  br i1 %21, label %.lr.ph42, label %.loopexit

.lr.ph42:                                         ; preds = %40
  %41 = getelementptr inbounds nuw i8, ptr %0, i64 296
  %42 = load ptr, ptr %41, align 8, !tbaa !186
  %wide.trip.count47 = zext nneg i32 %20 to i64
  br label %43

43:                                               ; preds = %.lr.ph42, %43
  %indvars.iv44 = phi i64 [ 0, %.lr.ph42 ], [ %indvars.iv.next45, %43 ]
  %44 = getelementptr inbounds nuw double, ptr %2, i64 %indvars.iv44
  %45 = load double, ptr %44, align 8, !tbaa !60
  %46 = getelementptr inbounds nuw double, ptr %42, i64 %indvars.iv44
  store double %45, ptr %46, align 8, !tbaa !60
  %indvars.iv.next45 = add nuw nsw i64 %indvars.iv44, 1
  %exitcond48.not = icmp eq i64 %indvars.iv.next45, %wide.trip.count47
  br i1 %exitcond48.not, label %.loopexit, label %43, !llvm.loop !187

.loopexit:                                        ; preds = %43, %40, %27, %22, %16, %13, %9, %5
  %.032 = phi i32 [ -20, %5 ], [ -22, %16 ], [ -22, %22 ], [ -22, %27 ], [ -50, %13 ], [ -40, %9 ], [ 0, %40 ], [ 0, %43 ]
  ret i32 %.032
}